Certificate:
    Data:
        Version: 3 (0x2)
        Serial Number: 1 (0x1)
        Signature Algorithm: sha384WithRSAEncryption
        Issuer: C=HU, ST=Hungary, L=Budapest, O=UNI-OBUDA, OU=NIK, CN=Petri Universitas Budensis Root CA/emailAddress=petrirootca@qwaevisz.hu
        Validity
            Not Before: Sep 28 19:04:59 2011 GMT
            Not After : Sep 27 19:04:59 2012 GMT
        Subject: C=HU, ST=Hungary, O=UNI-OBUDA, OU=NIK, CN=Petri Universitas Budensis Sub CA/emailAddress=petrisubca@qwaevisz.hu
        Subject Public Key Info:
            Public Key Algorithm: rsaEncryption
            RSA Public Key: (4096 bit)
                Modulus (4096 bit):
                    00:c7:3d:a1:d9:73:7b:e4:ac:07:5b:41:8e:2e:2f:
                    91:8b:01:81:f3:c4:8e:6a:22:af:c5:b8:d7:36:91:
                    c8:fc:94:6f:bc:47:e3:3b:fc:d9:1b:89:d5:97:79:
                    8b:dd:6d:e2:10:15:bb:3b:9c:0d:0b:55:bc:ad:c5:
                    46:45:fd:64:98:68:d7:6a:52:f8:da:8a:5b:5f:da:
                    77:8e:bb:1b:3a:cd:ba:3c:ff:1c:e0:95:fa:40:59:
                    21:7f:15:cc:7f:09:77:74:f4:d5:24:85:e4:1e:1f:
                    81:39:cd:19:99:aa:b5:91:95:f3:12:06:10:7e:33:
                    d1:72:2c:04:f3:5f:c8:4c:9f:fd:ea:b1:65:58:e8:
                    8d:ae:2b:0c:d1:65:d9:f0:e9:9c:05:c4:79:9b:e3:
                    81:67:20:c9:38:8c:b9:13:c9:f5:02:c1:b2:cd:31:
                    e1:6f:6d:aa:06:c9:ac:4d:1c:4a:21:a9:2c:d3:45:
                    79:6f:a0:6f:87:ce:40:67:bc:34:bb:81:6a:ca:e9:
                    00:0b:19:cb:03:fb:ee:9f:47:69:b3:8c:f4:19:b2:
                    bf:76:be:be:24:97:81:99:20:98:4b:b1:94:22:ac:
                    6e:9f:7b:38:d4:71:f6:82:00:6a:dd:92:af:e2:35:
                    d0:f4:48:82:cb:4e:3f:6c:2a:19:c1:4e:7d:50:c0:
                    eb:ee:00:cf:6b:8e:1a:ae:ae:7f:2b:54:f9:21:a9:
                    c5:48:d2:ff:54:fb:f1:a6:06:c1:77:33:cd:34:48:
                    dd:14:b5:f1:9e:6f:6f:cd:36:b7:0b:ab:de:5b:61:
                    b7:f0:0d:e1:c7:6a:6a:ec:a1:fe:31:45:99:1d:fc:
                    66:c9:4d:47:e5:89:06:22:51:44:8b:e6:bd:11:a5:
                    2b:8d:03:8e:ec:10:8b:63:39:65:65:d4:22:2a:07:
                    2f:11:94:16:fb:e0:41:d8:33:49:79:7f:b0:fd:d6:
                    40:d2:1e:bf:19:7c:ea:37:49:2d:39:d5:55:54:d5:
                    7a:b5:36:07:06:2b:90:c7:db:7b:13:fa:b5:e6:0a:
                    4f:f8:4a:63:1f:86:74:22:c3:b1:df:b8:ea:43:24:
                    38:59:1b:d2:fb:56:31:ea:d1:a0:4d:2f:26:46:a0:
                    11:2d:fe:17:9b:cc:3f:1f:c4:31:28:be:ca:4a:f8:
                    dc:f5:ca:7b:d4:11:a6:e4:3f:6c:27:ed:ac:5d:33:
                    3f:7c:c3:04:be:a2:33:22:19:31:fc:bb:f8:fe:f8:
                    16:25:7f:d4:f5:02:9a:75:61:d9:9b:64:bc:f7:22:
                    44:ff:a3:e9:b1:8d:6b:28:eb:99:f6:d8:c5:5c:3e:
                    bf:b2:d3:90:6f:43:35:72:be:78:19:51:25:6b:cb:
                    cc:34:a7
                Exponent: 65537 (0x10001)
        X509v3 extensions:
            X509v3 Basic Constraints: critical
                CA:TRUE, pathlen:3
            X509v3 Key Usage: 
                Certificate Sign, CRL Sign
            X509v3 Subject Key Identifier: 
                DC:9A:A7:3C:3E:18:58:1B:32:2F:9A:4D:7B:0D:31:86:D6:D4:1F:36
            X509v3 Authority Key Identifier: 
                keyid:BE:94:EF:66:94:48:72:0B:57:76:01:20:BD:9B:70:0B:92:3C:98:A8

            X509v3 Subject Alternative Name: 
                DirName:/C=HU/O=Ericsson/OU=ETH/CN=Ericsson Test
    Signature Algorithm: sha384WithRSAEncryption
        08:06:bb:dd:93:9c:cb:a2:e6:61:a0:95:f7:f1:3f:77:89:0f:
        6b:35:32:08:56:89:fa:b9:59:17:8b:05:61:4a:d3:e2:b7:f2:
        9d:3e:9c:74:00:50:1e:ca:0a:89:35:3b:cb:e8:30:30:e5:dd:
        02:c6:b5:33:f4:c7:e2:63:4d:e4:4a:02:46:0a:2b:0d:c6:06:
        39:2a:11:1c:18:89:5f:f8:a0:67:ef:80:3f:2b:ed:95:83:f9:
        2e:43:97:a4:bf:91:0f:64:5a:d3:c1:4f:99:75:9c:58:a4:d6:
        3e:67:01:06:72:87:af:0c:f2:d0:fc:b9:af:c0:f0:35:82:9b:
        ba:e9:97:e7:08:28:9f:64:25:ed:52:31:15:6b:47:66:60:e0:
        e8:67:55:67:4b:0d:f1:3b:85:b7:df:18:df:1a:bf:7e:fa:3e:
        1d:00:4c:9e:09:97:0f:02:04:62:6d:a3:a5:2a:0b:d0:eb:20:
        cf:dc:29:2f:30:ad:f2:53:96:93:7b:ba:77:29:3b:c1:18:58:
        65:0c:1e:22:1f:95:04:62:43:f0:5a:b9:2d:c9:16:a6:e4:a6:
        49:16:dc:0c:43:e9:7b:ee:44:6e:b0:73:4c:0d:51:c8:9e:4f:
        88:83:29:d5:62:86:6a:b4:d3:fb:69:b0:93:50:0a:20:3c:be:
        49:73:18:29:6f:79:f0:dd:ac:30:20:0a:67:af:0e:6d:92:6f:
        06:2d:51:bd:31:f1:a8:b5:25:a0:2f:34:b9:28:4f:0c:ef:44:
        d7:2a:78:2f:eb:80:f4:66:de:33:33:22:72:7f:53:ab:7d:20:
        cc:f3:a7:a0:4e:9f:0d:70:e0:fc:b6:45:c4:6c:b9:97:a1:3c:
        0f:da:90:76:55:0a:07:7a:76:69:97:15:6e:43:a3:03:d5:d6:
        b4:84:0c:1f:99:3c:4d:33:1a:51:61:86:6b:55:48:6e:5d:b7:
        74:79:c9:09:d8:f9:b9:c1:c8:22:3b:ca:25:1f:34:fd:4d:a4:
        2b:26:ef:e7:a9:44:54:7f:b0:a1:fb:9a:a4:8d:1e:29:f3:e0:
        66:75:72:f6:70:97:90:0d:eb:4f:af:a9:dc:cf:43:d3:5b:7c:
        c4:0e:52:60:74:7e:81:f7:84:c9:d3:26:23:c0:70:03:e7:5a:
        d9:3c:81:e6:52:4d:c2:5e:0e:31:8a:5b:55:e7:9d:3a:a8:cc:
        d7:01:15:a2:e1:8a:53:83:6f:4f:3d:ec:d4:d6:b9:58:e3:c0:
        80:7e:e3:1c:c2:2e:c6:43:c0:02:5d:9c:2b:3d:0f:47:c7:10:
        82:3d:7d:95:02:f6:cc:04:41:dd:8f:d8:cf:f5:27:0c:15:2e:
        57:e6:d7:09:15:af:fc:17
-----BEGIN CERTIFICATE-----
MIIGdDCCBFygAwIBAgIBATANBgkqhkiG9w0BAQwFADCBqTELMAkGA1UEBhMCSFUx
EDAOBgNVBAgTB0h1bmdhcnkxETAPBgNVBAcTCEJ1ZGFwZXN0MRIwEAYDVQQKEwlV
TkktT0JVREExDDAKBgNVBAsTA05JSzErMCkGA1UEAxMiUGV0cmkgVW5pdmVyc2l0
YXMgQnVkZW5zaXMgUm9vdCBDQTEmMCQGCSqGSIb3DQEJARYXcGV0cmlyb290Y2FA
cXdhZXZpc3ouaHUwHhcNMTEwOTI4MTkwNDU5WhcNMTIwOTI3MTkwNDU5WjCBlDEL
MAkGA1UEBhMCSFUxEDAOBgNVBAgTB0h1bmdhcnkxEjAQBgNVBAoTCVVOSS1PQlVE
QTEMMAoGA1UECxMDTklLMSowKAYDVQQDEyFQZXRyaSBVbml2ZXJzaXRhcyBCdWRl
bnNpcyBTdWIgQ0ExJTAjBgkqhkiG9w0BCQEWFnBldHJpc3ViY2FAcXdhZXZpc3ou
aHUwggIiMA0GCSqGSIb3DQEBAQUAA4ICDwAwggIKAoICAQDHPaHZc3vkrAdbQY4u
L5GLAYHzxI5qIq/FuNc2kcj8lG+8R+M7/NkbidWXeYvdbeIQFbs7nA0LVbytxUZF
/WSYaNdqUvjailtf2neOuxs6zbo8/xzglfpAWSF/Fcx/CXd09NUkheQeH4E5zRmZ
qrWRlfMSBhB+M9FyLATzX8hMn/3qsWVY6I2uKwzRZdnw6ZwFxHmb44FnIMk4jLkT
yfUCwbLNMeFvbaoGyaxNHEohqSzTRXlvoG+HzkBnvDS7gWrK6QALGcsD++6fR2mz
jPQZsr92vr4kl4GZIJhLsZQirG6fezjUcfaCAGrdkq/iNdD0SILLTj9sKhnBTn1Q
wOvuAM9rjhqurn8rVPkhqcVI0v9U+/GmBsF3M800SN0UtfGeb2/NNrcLq95bYbfw
DeHHamrsof4xRZkd/GbJTUfliQYiUUSL5r0RpSuNA47sEItjOWVl1CIqBy8RlBb7
4EHYM0l5f7D91kDSHr8ZfOo3SS051VVU1Xq1NgcGK5DH23sT+rXmCk/4SmMfhnQi
w7HfuOpDJDhZG9L7VjHq0aBNLyZGoBEt/hebzD8fxDEovspK+Nz1ynvUEabkP2wn
7axdMz98wwS+ojMiGTH8u/j++BYlf9T1App1YdmbZLz3IkT/o+mxjWso65n22MVc
Pr+y05BvQzVyvngZUSVry8w0pwIDAQABo4G5MIG2MBIGA1UdEwEB/wQIMAYBAf8C
AQMwCwYDVR0PBAQDAgEGMB0GA1UdDgQWBBTcmqc8PhhYGzIvmk17DTGG1tQfNjAf
BgNVHSMEGDAWgBS+lO9mlEhyC1d2ASC9m3ALkjyYqDBTBgNVHREETDBKpEgwRjEL
MAkGA1UEBhMCSFUxETAPBgNVBAoTCEVyaWNzc29uMQwwCgYDVQQLEwNFVEgxFjAU
BgNVBAMTDUVyaWNzc29uIFRlc3QwDQYJKoZIhvcNAQEMBQADggIBAAgGu92TnMui
5mGglffxP3eJD2s1MghWifq5WReLBWFK0+K38p0+nHQAUB7KCok1O8voMDDl3QLG
tTP0x+JjTeRKAkYKKw3GBjkqERwYiV/4oGfvgD8r7ZWD+S5Dl6S/kQ9kWtPBT5l1
nFik1j5nAQZyh68M8tD8ua/A8DWCm7rpl+cIKJ9kJe1SMRVrR2Zg4OhnVWdLDfE7
hbffGN8av376Ph0ATJ4Jlw8CBGJto6UqC9DrIM/cKS8wrfJTlpN7uncpO8EYWGUM
HiIflQRiQ/BauS3JFqbkpkkW3AxD6XvuRG6wc0wNUcieT4iDKdVihmq00/tpsJNQ
CiA8vklzGClvefDdrDAgCmevDm2SbwYtUb0x8ai1JaAvNLkoTwzvRNcqeC/rgPRm
3jMzInJ/U6t9IMzzp6BOnw1w4Py2RcRsuZehPA/akHZVCgd6dmmXFW5DowPV1rSE
DB+ZPE0zGlFhhmtVSG5dt3R5yQnY+bnByCI7yiUfNP1NpCsm7+epRFR/sKH7mqSN
Hinz4GZ1cvZwl5AN60+vqdzPQ9NbfMQOUmB0foH3hMnTJiPAcAPnWtk8geZSTcJe
DjGKW1XnnTqozNcBFaLhilODb0897NTWuVjjwIB+4xzCLsZDwAJdnCs9D0fHEII9
fZUC9swEQd2P2M/1JwwVLlfm1wkVr/wX
-----END CERTIFICATE-----
