Certificate:
    Data:
        Version: 3 (0x2)
        Serial Number: 1 (0x1)
        Signature Algorithm: sha384WithRSAEncryption
        Issuer: C=HU, ST=Hungary, O=UNI-OBUDA, OU=NIK, CN=Petri Universitas Budensis Sub CA/emailAddress=petrisubca@qwaevisz.hu
        Validity
            Not Before: Sep 28 19:07:46 2011 GMT
            Not After : Sep 17 19:07:46 2013 GMT
        Subject: C=HU, ST=Hungary, L=Budapest, O=UNI-OBUDA, OU=NIK, CN=Universitas Budensis
        Subject Public Key Info:
            Public Key Algorithm: rsaEncryption
            RSA Public Key: (1024 bit)
                Modulus (1024 bit):
                    00:e4:65:78:41:02:ca:77:b2:44:b2:f6:30:45:13:
                    d4:75:7f:1c:33:7c:aa:9f:d9:0e:3c:03:1b:62:b1:
                    23:74:b4:95:c5:18:da:52:9a:e3:d4:05:f6:b9:f8:
                    f1:b4:c0:4b:01:21:26:2c:9b:48:72:40:39:08:24:
                    83:90:2e:36:55:b9:c5:9b:54:1d:17:c3:ab:6e:a3:
                    73:ab:4f:5f:ae:3a:14:63:39:ab:fe:ef:2c:0b:ae:
                    36:61:92:f8:a6:1b:e4:06:cb:e5:94:62:bf:5d:ed:
                    9e:29:75:d1:c0:99:b0:23:ba:44:e8:3d:54:0d:b7:
                    19:ae:94:2d:98:db:0f:2f:3b
                Exponent: 65537 (0x10001)
        X509v3 extensions:
            X509v3 Basic Constraints: critical
                CA:FALSE
            X509v3 Key Usage: 
                Digital Signature, Non Repudiation, Key Encipherment
            X509v3 Extended Key Usage: 
                TLS Web Server Authentication, TLS Web Client Authentication, Code Signing, E-mail Protection, Time Stamping
            X509v3 Subject Key Identifier: 
                47:A1:98:59:62:99:E7:74:A6:1B:6F:55:D7:52:80:15:25:FE:47:8E
    Signature Algorithm: sha384WithRSAEncryption
        58:74:26:6f:fe:6b:9b:7f:11:4a:23:47:e3:53:c2:00:8b:e0:
        39:61:c1:29:36:39:8b:4c:f0:6b:51:ec:53:9e:b3:7e:64:a0:
        ad:e4:48:1e:94:f3:05:91:82:c9:92:25:bb:35:b3:db:14:1b:
        36:11:55:77:e3:75:74:bb:a1:29:44:c0:64:65:e3:2f:70:cc:
        eb:df:ab:1d:17:b3:21:be:42:04:f6:5a:b8:d9:50:3e:a2:6d:
        3f:5d:08:84:01:ce:a0:1c:a4:88:d1:53:97:43:11:2d:e1:f0:
        76:b8:20:c5:62:a9:bb:dc:73:21:1e:ce:26:76:8f:ad:ed:17:
        df:90:cd:10:26:6a:8a:d9:cd:23:1a:b1:01:75:cc:5f:62:62:
        ab:e7:2d:5f:c4:b5:2d:50:56:69:ed:ed:3f:68:45:a4:a1:25:
        e6:0f:b1:de:8c:67:82:ac:96:c3:ea:51:09:80:7b:36:9c:09:
        23:be:c8:b0:16:3e:37:21:ab:56:ec:02:99:9c:40:7d:14:ce:
        3d:d0:d4:4d:45:8c:3b:68:f2:c7:e1:bf:ba:84:21:e0:8b:53:
        0a:9f:93:63:b1:c1:0e:eb:0b:6a:7e:e8:f9:b0:d9:3f:74:f8:
        f4:96:f1:2d:39:c0:ba:d5:f1:df:e3:34:fe:cb:e1:78:3d:1f:
        86:67:3b:b4:fe:1b:8a:af:93:3e:e9:ff:4c:e1:2a:b3:7b:e1:
        13:9e:3f:d8:71:f6:fb:19:c5:87:93:4a:ed:a3:48:44:c1:c7:
        82:c5:14:92:dc:d3:e2:fd:43:da:fe:2f:4e:36:1a:d2:27:82:
        a8:12:72:08:6b:da:7e:5d:c8:e4:59:9f:08:b7:db:7e:46:23:
        2a:61:b6:c5:a6:00:6c:3d:e2:8d:df:c8:89:e6:05:07:fa:98:
        cb:31:26:ff:fb:f1:ee:6a:66:fa:d0:6e:26:8e:ef:67:93:7b:
        15:43:88:c5:3a:9e:fb:9d:c5:1f:12:03:1c:96:c0:51:fb:bc:
        2e:bb:ac:de:74:45:04:a0:8a:68:cc:00:8f:b1:e8:23:e3:bd:
        e2:a6:93:1a:92:76:9b:3f:e8:e3:5f:0b:82:1f:f3:25:2b:86:
        d0:7b:0a:bd:e2:f6:c7:35:49:3a:a4:65:63:d4:2d:03:67:71:
        79:48:a9:3f:a1:3d:1a:c4:74:df:0c:7f:41:0a:78:5c:a8:6f:
        d5:7b:7b:20:6a:8f:2b:8a:9d:c9:0f:e2:99:3f:8b:68:15:b1:
        45:6d:49:f1:6c:47:cb:25:b0:8b:3a:4b:75:b3:13:93:f9:82:
        d0:84:fb:fc:5d:84:ca:cb:31:9e:be:fe:e4:95:8b:de:49:3b:
        6c:b5:f2:49:ad:91:e1:f3
-----BEGIN CERTIFICATE-----
MIIEeDCCAmCgAwIBAgIBATANBgkqhkiG9w0BAQwFADCBlDELMAkGA1UEBhMCSFUx
EDAOBgNVBAgTB0h1bmdhcnkxEjAQBgNVBAoTCVVOSS1PQlVEQTEMMAoGA1UECxMD
TklLMSowKAYDVQQDEyFQZXRyaSBVbml2ZXJzaXRhcyBCdWRlbnNpcyBTdWIgQ0Ex
JTAjBgkqhkiG9w0BCQEWFnBldHJpc3ViY2FAcXdhZXZpc3ouaHUwHhcNMTEwOTI4
MTkwNzQ2WhcNMTMwOTE3MTkwNzQ2WjBzMQswCQYDVQQGEwJIVTEQMA4GA1UECBMH
SHVuZ2FyeTERMA8GA1UEBxMIQnVkYXBlc3QxEjAQBgNVBAoTCVVOSS1PQlVEQTEM
MAoGA1UECxMDTklLMR0wGwYDVQQDExRVbml2ZXJzaXRhcyBCdWRlbnNpczCBnzAN
BgkqhkiG9w0BAQEFAAOBjQAwgYkCgYEA5GV4QQLKd7JEsvYwRRPUdX8cM3yqn9kO
PAMbYrEjdLSVxRjaUprj1AX2ufjxtMBLASEmLJtIckA5CCSDkC42VbnFm1QdF8Or
bqNzq09frjoUYzmr/u8sC642YZL4phvkBsvllGK/Xe2eKXXRwJmwI7pE6D1UDbcZ
rpQtmNsPLzsCAwEAAaN5MHcwDAYDVR0TAQH/BAIwADALBgNVHQ8EBAMCBeAwOwYD
VR0lBDQwMgYIKwYBBQUHAwEGCCsGAQUFBwMCBggrBgEFBQcDAwYIKwYBBQUHAwQG
CCsGAQUFBwMIMB0GA1UdDgQWBBRHoZhZYpnndKYbb1XXUoAVJf5HjjANBgkqhkiG
9w0BAQwFAAOCAgEAWHQmb/5rm38RSiNH41PCAIvgOWHBKTY5i0zwa1HsU56zfmSg
reRIHpTzBZGCyZIluzWz2xQbNhFVd+N1dLuhKUTAZGXjL3DM69+rHRezIb5CBPZa
uNlQPqJtP10IhAHOoBykiNFTl0MRLeHwdrggxWKpu9xzIR7OJnaPre0X35DNECZq
itnNIxqxAXXMX2Jiq+ctX8S1LVBWae3tP2hFpKEl5g+x3oxngqyWw+pRCYB7NpwJ
I77IsBY+NyGrVuwCmZxAfRTOPdDUTUWMO2jyx+G/uoQh4ItTCp+TY7HBDusLan7o
+bDZP3T49JbxLTnAutXx3+M0/svheD0fhmc7tP4biq+TPun/TOEqs3vhE54/2HH2
+xnFh5NK7aNIRMHHgsUUktzT4v1D2v4vTjYa0ieCqBJyCGvafl3I5FmfCLfbfkYj
KmG2xaYAbD3ijd/IieYFB/qYyzEm//vx7mpm+tBuJo7vZ5N7FUOIxTqe+53FHxID
HJbAUfu8Lrus3nRFBKCKaMwAj7HoI+O94qaTGpJ2mz/o418Lgh/zJSuG0HsKveL2
xzVJOqRlY9QtA2dxeUipP6E9GsR03wx/QQp4XKhv1Xt7IGqPK4qdyQ/imT+LaBWx
RW1J8WxHyyWwizpLdbMTk/mC0IT7/F2Eyssxnr7+5JWL3kk7bLXySa2R4fM=
-----END CERTIFICATE-----
