Certificate:
    Data:
        Version: 3 (0x2)
        Serial Number: 2 (0x2)
        Signature Algorithm: sha384WithRSAEncryption
        Issuer: C=HU, ST=Hungary, O=UNI-OBUDA, OU=NIK, CN=Petri Universitas Budensis Sub CA/emailAddress=petrisubca@qwaevisz.hu
        Validity
            Not Before: Sep 29 09:21:49 2011 GMT
            Not After : Sep 18 09:21:49 2013 GMT
        Subject: C=HU, ST=Hungary, L=Budapest, O=UNI-OBUDA, OU=NIK, CN=David Bedok/emailAddress=bedok.david@nik.uni-obuda.hu
        Subject Public Key Info:
            Public Key Algorithm: rsaEncryption
            RSA Public Key: (1024 bit)
                Modulus (1024 bit):
                    00:bd:bb:9b:c5:3c:06:99:d0:52:41:c4:17:6e:72:
                    b0:b2:1c:b8:ff:dd:ff:9d:20:23:52:40:77:e5:37:
                    58:18:bb:e2:20:86:a4:0f:dd:f2:84:ba:05:2f:e7:
                    14:be:8d:3e:01:12:54:8e:1f:06:c1:0c:69:7a:f0:
                    b2:08:55:9f:86:0a:68:97:5b:80:f8:8c:ca:cb:e4:
                    8d:64:74:19:48:ab:74:df:8d:75:0b:67:02:5e:ce:
                    76:0e:5e:19:f4:e6:bf:b3:0a:b6:60:c6:54:7c:74:
                    66:74:94:67:90:d8:57:1c:f3:9f:64:2c:23:d3:66:
                    74:52:bc:32:1a:4d:b7:bf:1b
                Exponent: 65537 (0x10001)
        X509v3 extensions:
            X509v3 Basic Constraints: critical
                CA:FALSE
            X509v3 Key Usage: 
                Digital Signature, Non Repudiation, Key Encipherment
            X509v3 Extended Key Usage: 
                TLS Web Server Authentication, TLS Web Client Authentication, Code Signing, E-mail Protection, Time Stamping
            X509v3 Subject Key Identifier: 
                F2:18:DE:11:79:AB:1C:E2:21:A7:6B:D5:7A:E9:B9:91:58:A8:B6:D4
    Signature Algorithm: sha384WithRSAEncryption
        32:46:df:22:6e:cd:76:87:34:bb:26:65:1a:b9:a2:7e:c4:87:
        20:78:34:cd:95:a4:16:d3:c5:f8:ab:3c:fd:e0:58:af:8a:cd:
        1a:9a:c4:b3:69:e9:3d:45:7c:1c:ae:d7:c8:bc:b2:01:7f:48:
        e2:be:d6:a9:3b:1a:e3:79:82:3f:31:72:5c:a9:74:16:e4:9b:
        01:11:b1:9a:40:6c:4f:5c:f0:21:57:a1:67:b7:2b:71:e9:60:
        7f:66:ee:bd:53:f2:53:88:fd:15:92:fa:ec:d3:7b:85:ab:ea:
        61:a6:2e:77:3b:7c:a0:d4:a4:83:f7:d1:17:f0:cc:05:09:d1:
        24:e7:b8:6b:cc:ad:9e:81:14:7a:6d:f2:48:03:d8:dc:3e:c4:
        80:d2:93:db:cb:9f:14:a7:a5:50:d7:9c:50:0f:e4:34:da:a6:
        1b:c1:7d:74:e8:cb:a1:d4:c0:04:17:20:9e:80:99:b3:ae:0f:
        b9:9c:09:0d:de:cb:3d:94:9f:a9:4b:e5:cb:74:2f:f6:49:03:
        60:3a:42:7e:76:59:88:3b:5a:b3:f2:a4:7b:da:f5:4a:20:fb:
        97:8d:60:14:25:e8:1d:b9:50:8c:b1:7b:c6:ea:61:71:6d:4e:
        2f:79:12:14:78:2d:15:5a:e6:65:bb:a6:f2:5e:02:4d:f7:cf:
        4f:96:b1:a6:35:43:47:c1:4d:42:65:23:34:6a:cf:25:aa:33:
        ab:89:6a:9b:4d:d0:f3:46:bb:ca:bc:d5:30:dd:21:58:45:61:
        86:2c:f7:c0:9d:93:79:49:42:dc:d5:12:b3:19:e4:52:8f:66:
        f5:bb:b1:db:e6:91:f7:ca:b1:69:50:7f:8b:0d:2c:32:2e:a5:
        27:3e:fb:72:b2:3e:7c:d2:64:b1:da:d2:eb:ee:90:35:fe:98:
        ba:42:b2:b7:69:e0:05:7c:98:6b:04:9e:9c:40:bf:f9:37:b0:
        c4:2a:b5:1a:30:65:ec:8f:53:54:a6:e4:e7:7f:57:24:02:25:
        82:0a:ec:79:d6:29:dd:5d:d5:a2:4f:13:e3:3c:f2:9c:0b:cd:
        30:90:17:6a:15:09:20:57:43:4b:6f:4e:61:85:3c:d9:98:a4:
        04:ef:6d:44:03:b0:5a:5c:64:29:54:af:46:a2:7c:c8:d6:ef:
        ed:14:fa:2b:56:03:73:2e:07:2e:5d:f9:bc:43:25:7e:8c:d7:
        f8:85:e0:0c:12:8f:b3:3f:92:04:cf:c3:03:4f:36:e0:25:14:
        a9:f2:f3:24:ea:49:87:3b:43:59:cd:f1:0c:ab:d0:53:b8:23:
        60:dc:58:85:4d:26:db:5f:4a:c0:65:a4:af:de:82:8e:fc:aa:
        3c:ea:96:39:af:8a:03:8f
-----BEGIN CERTIFICATE-----
MIIEnTCCAoWgAwIBAgIBAjANBgkqhkiG9w0BAQwFADCBlDELMAkGA1UEBhMCSFUx
EDAOBgNVBAgTB0h1bmdhcnkxEjAQBgNVBAoTCVVOSS1PQlVEQTEMMAoGA1UECxMD
TklLMSowKAYDVQQDEyFQZXRyaSBVbml2ZXJzaXRhcyBCdWRlbnNpcyBTdWIgQ0Ex
JTAjBgkqhkiG9w0BCQEWFnBldHJpc3ViY2FAcXdhZXZpc3ouaHUwHhcNMTEwOTI5
MDkyMTQ5WhcNMTMwOTE4MDkyMTQ5WjCBlzELMAkGA1UEBhMCSFUxEDAOBgNVBAgT
B0h1bmdhcnkxETAPBgNVBAcTCEJ1ZGFwZXN0MRIwEAYDVQQKEwlVTkktT0JVREEx
DDAKBgNVBAsTA05JSzEUMBIGA1UEAxMLRGF2aWQgQmVkb2sxKzApBgkqhkiG9w0B
CQEWHGJlZG9rLmRhdmlkQG5pay51bmktb2J1ZGEuaHUwgZ8wDQYJKoZIhvcNAQEB
BQADgY0AMIGJAoGBAL27m8U8BpnQUkHEF25ysLIcuP/d/50gI1JAd+U3WBi74iCG
pA/d8oS6BS/nFL6NPgESVI4fBsEMaXrwsghVn4YKaJdbgPiMysvkjWR0GUirdN+N
dQtnAl7Odg5eGfTmv7MKtmDGVHx0ZnSUZ5DYVxzzn2QsI9NmdFK8MhpNt78bAgMB
AAGjeTB3MAwGA1UdEwEB/wQCMAAwCwYDVR0PBAQDAgXgMDsGA1UdJQQ0MDIGCCsG
AQUFBwMBBggrBgEFBQcDAgYIKwYBBQUHAwMGCCsGAQUFBwMEBggrBgEFBQcDCDAd
BgNVHQ4EFgQU8hjeEXmrHOIhp2vVeum5kViottQwDQYJKoZIhvcNAQEMBQADggIB
ADJG3yJuzXaHNLsmZRq5on7EhyB4NM2VpBbTxfirPP3gWK+KzRqaxLNp6T1FfByu
18i8sgF/SOK+1qk7GuN5gj8xclypdBbkmwERsZpAbE9c8CFXoWe3K3HpYH9m7r1T
8lOI/RWS+uzTe4Wr6mGmLnc7fKDUpIP30RfwzAUJ0STnuGvMrZ6BFHpt8kgD2Nw+
xIDSk9vLnxSnpVDXnFAP5DTaphvBfXToy6HUwAQXIJ6AmbOuD7mcCQ3eyz2Un6lL
5ct0L/ZJA2A6Qn52WYg7WrPypHva9Uog+5eNYBQl6B25UIyxe8bqYXFtTi95EhR4
LRVa5mW7pvJeAk33z0+WsaY1Q0fBTUJlIzRqzyWqM6uJaptN0PNGu8q81TDdIVhF
YYYs98Cdk3lJQtzVErMZ5FKPZvW7sdvmkffKsWlQf4sNLDIupSc++3KyPnzSZLHa
0uvukDX+mLpCsrdp4AV8mGsEnpxAv/k3sMQqtRowZeyPU1Sm5Od/VyQCJYIK7HnW
Kd1d1aJPE+M88pwLzTCQF2oVCSBXQ0tvTmGFPNmYpATvbUQDsFpcZClUr0aifMjW
7+0U+itWA3MuBy5d+bxDJX6M1/iF4AwSj7M/kgTPwwNPNuAlFKny8yTqSYc7Q1nN
8Qyr0FO4I2DcWIVNJttfSsBlpK/ego78qjzqljmvigOP
-----END CERTIFICATE-----
