Certificate:
    Data:
        Version: 3 (0x2)
        Serial Number: 3 (0x3)
        Signature Algorithm: sha384WithRSAEncryption
        Issuer: C=HU, ST=Hungary, O=UNI-OBUDA, OU=NIK, CN=Petri Universitas Budensis Sub CA/emailAddress=petrisubca@qwaevisz.hu
        Validity
            Not Before: Dec  5 18:14:07 2011 GMT
            Not After : Nov 24 18:14:07 2013 GMT
        Subject: C=HU, ST=Hungary, L=Budapest, O=Ericsson, OU=ETH, CN=Ericsson Hungary Ltd./emailAddress=david.bedok@ericsson.com
        Subject Public Key Info:
            Public Key Algorithm: rsaEncryption
            RSA Public Key: (1024 bit)
                Modulus (1024 bit):
                    00:9f:f2:b1:aa:ab:06:2d:c1:21:7e:7a:ee:85:50:
                    58:d6:12:c3:d4:f4:13:44:d7:d7:0b:2e:e3:3c:43:
                    5c:99:e3:aa:66:b4:43:a2:d6:e7:4e:85:8b:5b:ab:
                    ac:17:c4:29:89:93:9a:08:90:0f:f8:77:4f:b2:49:
                    a9:1f:d9:62:70:17:bb:e0:0d:04:b7:16:61:a7:ca:
                    f8:15:b3:98:fb:dc:d2:ad:8e:ef:16:b7:d5:45:90:
                    86:67:a8:74:cd:3e:db:13:2d:9a:ce:99:fb:02:21:
                    f5:75:ad:b6:39:26:cc:5b:22:5c:fa:9f:78:4b:2b:
                    1d:15:51:12:d2:1c:d3:81:b7
                Exponent: 65537 (0x10001)
        X509v3 extensions:
            X509v3 Basic Constraints: critical
                CA:FALSE
            X509v3 Key Usage: 
                Digital Signature, Non Repudiation, Key Encipherment
            X509v3 Extended Key Usage: 
                TLS Web Server Authentication, TLS Web Client Authentication, Code Signing, E-mail Protection, Time Stamping
            X509v3 Subject Key Identifier: 
                8F:C5:CE:4B:93:EC:FD:CE:62:36:A8:B1:4C:5E:0D:BB:D2:70:D2:F0
    Signature Algorithm: sha384WithRSAEncryption
        4e:55:38:49:c7:72:97:b2:df:86:d3:a9:2f:1c:1d:8d:81:17:
        54:f6:e0:fa:f1:9c:44:25:be:d2:ec:1a:00:09:ca:be:80:a5:
        6b:48:f6:3c:03:9d:16:fd:69:f1:22:e7:b1:cf:8e:6a:49:c3:
        26:ab:5f:fe:99:7a:73:8f:fb:cd:93:89:25:87:1c:88:8a:43:
        e7:14:e3:12:3f:a3:5a:47:c1:9d:6e:d9:ff:1f:89:5f:c6:68:
        b2:57:35:0a:a8:72:ea:fd:95:34:d7:e7:02:16:f8:f7:8c:d9:
        5a:98:4c:a8:2e:43:92:76:8b:9d:ff:a5:11:ee:8a:d3:71:0e:
        be:b6:5c:a4:5e:09:25:e6:2f:b0:7f:b5:cd:4a:fc:55:f2:35:
        f8:ec:cc:30:3f:6f:ff:77:e8:d8:41:fc:ce:b1:6f:39:32:bc:
        ac:a2:9b:2c:5b:2e:07:a8:43:1e:01:29:e4:88:58:8f:2b:65:
        eb:85:e0:63:46:ae:4b:e3:76:9b:51:fd:40:c4:1a:e9:e7:13:
        23:93:10:65:4d:82:58:6d:0f:30:3f:96:37:ea:a8:5a:64:34:
        0c:e0:d5:a6:f9:d5:fd:51:27:d6:28:ec:e5:32:6e:f4:00:15:
        f4:41:59:3e:ea:c7:a1:14:10:5c:88:70:b7:67:8e:7d:01:f1:
        2c:cd:55:29:f8:dd:38:a8:55:b8:59:39:9a:76:9b:4a:dd:12:
        f0:62:f5:0e:13:8c:f5:6b:2f:2b:76:6c:98:57:5b:fb:bf:e5:
        84:95:ce:dc:4c:43:20:2f:b2:1c:ce:53:d1:a3:51:b6:4e:1a:
        c0:be:de:a1:5b:42:4c:f6:9d:85:61:65:15:2b:43:a1:80:aa:
        7c:6d:f3:e0:86:a3:5e:14:40:e7:ae:97:d5:35:2b:08:d9:92:
        20:0f:39:b8:00:44:54:c5:d7:23:28:70:38:c3:dd:fc:81:61:
        aa:9a:f1:fa:8a:08:9e:5f:e5:60:ee:ea:b1:ba:c0:26:2e:13:
        9c:27:d0:70:4f:c3:6f:73:51:39:e8:ce:2d:b1:ee:5d:17:e0:
        82:dd:54:26:48:13:72:e3:e9:75:22:59:c0:0f:31:15:bb:99:
        d0:b2:4d:70:d2:f0:f5:6d:a6:af:5d:f4:e2:3c:67:a2:4b:03:
        aa:f0:90:c3:45:0a:19:c4:ba:d1:33:2d:45:09:5d:00:1d:d3:
        c8:ed:e7:d2:6a:b6:62:29:51:44:9d:5b:c0:78:d1:ef:5c:b2:
        ba:91:5e:64:7d:29:3f:f9:49:14:8d:a9:73:81:47:7c:29:d1:
        83:08:7b:68:4d:31:f8:a0:00:3c:87:0a:1c:10:5e:e8:d4:49:
        ff:dd:04:49:46:21:65:20
-----BEGIN CERTIFICATE-----
MIIEojCCAoqgAwIBAgIBAzANBgkqhkiG9w0BAQwFADCBlDELMAkGA1UEBhMCSFUx
EDAOBgNVBAgTB0h1bmdhcnkxEjAQBgNVBAoTCVVOSS1PQlVEQTEMMAoGA1UECxMD
TklLMSowKAYDVQQDEyFQZXRyaSBVbml2ZXJzaXRhcyBCdWRlbnNpcyBTdWIgQ0Ex
JTAjBgkqhkiG9w0BCQEWFnBldHJpc3ViY2FAcXdhZXZpc3ouaHUwHhcNMTExMjA1
MTgxNDA3WhcNMTMxMTI0MTgxNDA3WjCBnDELMAkGA1UEBhMCSFUxEDAOBgNVBAgT
B0h1bmdhcnkxETAPBgNVBAcTCEJ1ZGFwZXN0MREwDwYDVQQKEwhFcmljc3NvbjEM
MAoGA1UECxMDRVRIMR4wHAYDVQQDExVFcmljc3NvbiBIdW5nYXJ5IEx0ZC4xJzAl
BgkqhkiG9w0BCQEWGGRhdmlkLmJlZG9rQGVyaWNzc29uLmNvbTCBnzANBgkqhkiG
9w0BAQEFAAOBjQAwgYkCgYEAn/KxqqsGLcEhfnruhVBY1hLD1PQTRNfXCy7jPENc
meOqZrRDotbnToWLW6usF8QpiZOaCJAP+HdPskmpH9licBe74A0EtxZhp8r4FbOY
+9zSrY7vFrfVRZCGZ6h0zT7bEy2azpn7AiH1da22OSbMWyJc+p94SysdFVES0hzT
gbcCAwEAAaN5MHcwDAYDVR0TAQH/BAIwADALBgNVHQ8EBAMCBeAwOwYDVR0lBDQw
MgYIKwYBBQUHAwEGCCsGAQUFBwMCBggrBgEFBQcDAwYIKwYBBQUHAwQGCCsGAQUF
BwMIMB0GA1UdDgQWBBSPxc5Lk+z9zmI2qLFMXg270nDS8DANBgkqhkiG9w0BAQwF
AAOCAgEATlU4Scdyl7LfhtOpLxwdjYEXVPbg+vGcRCW+0uwaAAnKvoCla0j2PAOd
Fv1p8SLnsc+OaknDJqtf/pl6c4/7zZOJJYcciIpD5xTjEj+jWkfBnW7Z/x+JX8Zo
slc1Cqhy6v2VNNfnAhb494zZWphMqC5DknaLnf+lEe6K03EOvrZcpF4JJeYvsH+1
zUr8VfI1+OzMMD9v/3fo2EH8zrFvOTK8rKKbLFsuB6hDHgEp5IhYjytl64XgY0au
S+N2m1H9QMQa6ecTI5MQZU2CWG0PMD+WN+qoWmQ0DODVpvnV/VEn1ijs5TJu9AAV
9EFZPurHoRQQXIhwt2eOfQHxLM1VKfjdOKhVuFk5mnabSt0S8GL1DhOM9WsvK3Zs
mFdb+7/lhJXO3ExDIC+yHM5T0aNRtk4awL7eoVtCTPadhWFlFStDoYCqfG3z4Iaj
XhRA566X1TUrCNmSIA85uABEVMXXIyhwOMPd/IFhqprx+ooInl/lYO7qsbrAJi4T
nCfQcE/Db3NROejOLbHuXRfggt1UJkgTcuPpdSJZwA8xFbuZ0LJNcNLw9W2mr130
4jxnoksDqvCQw0UKGcS60TMtRQldAB3TyO3n0mq2YilRRJ1bwHjR71yyupFeZH0p
P/lJFI2pc4FHfCnRgwh7aE0x+KAAPIcKHBBe6NRJ/90ESUYhZSA=
-----END CERTIFICATE-----
